; Function Attrs: mustprogress nofree nounwind uwtable
define noundef zeroext i1 @_ZN3re212re2_internal5ParseIsEEbPKcmPT_i(ptr noundef readonly captures(none) %str, i64 noundef %n, ptr noundef writeonly %dest, i32 noundef %radix) local_unnamed_addr #17 {
entry:
  %buf.i = alloca [33 x i8], align 16
  %end.i = alloca ptr, align 8
  call void @llvm.lifetime.start.p0(i64 33, ptr nonnull %buf.i)
  call void @llvm.lifetime.start.p0(i64 8, ptr nonnull %end.i)
  %cmp.i = icmp eq i64 %n, 0
  br i1 %cmp.i, label %_ZN3re212re2_internal5ParseIlEEbPKcmPT_i.exit.thread, label %land.lhs.true.i.i

land.lhs.true.i.i:                                ; preds = %entry
  %0 = load i8, ptr %str, align 1
  %idxprom.i.i.i = zext i8 %0 to i64
  %arrayidx.i.i.i = getelementptr inbounds nuw [256 x i8], ptr @_ZN4absl7debian214ascii_internal13kPropertyBitsE, i64 0, i64 %idxprom.i.i.i
  %1 = load i8, ptr %arrayidx.i.i.i, align 1
  %2 = and i8 %1, 8
  %cmp.i.not.i.i = icmp eq i8 %2, 0
  br i1 %cmp.i.not.i.i, label %land.lhs.true9.i.i, label %_ZN3re212re2_internalL15TerminateNumberEPcmPKcPmb.exit.i

land.lhs.true9.i.i:                               ; preds = %land.lhs.true.i.i
  %cmp10.i.i = icmp eq i8 %0, 45
  %str.addr.2.idx.i.i = zext i1 %cmp10.i.i to i64
  %str.addr.2.i.i = getelementptr inbounds nuw i8, ptr %str, i64 %str.addr.2.idx.i.i
  %dec12.i.i = sext i1 %cmp10.i.i to i64
  %n.2.i.i = add i64 %n, %dec12.i.i
  %cmp15.i.i = icmp ugt i64 %n.2.i.i, 2
  br i1 %cmp15.i.i, label %land.lhs.true16.i.i, label %if.end36.i.i

land.lhs.true16.i.i:                              ; preds = %land.lhs.true9.i.i
  %3 = load i8, ptr %str.addr.2.i.i, align 1
  %cmp19.i.i = icmp eq i8 %3, 48
  br i1 %cmp19.i.i, label %land.lhs.true20.i.i, label %if.end36.i.i

land.lhs.true20.i.i:                              ; preds = %land.lhs.true16.i.i
  %arrayidx21.i.i = getelementptr inbounds nuw i8, ptr %str.addr.2.i.i, i64 1
  %4 = load i8, ptr %arrayidx21.i.i, align 1
  %cmp23.i.i = icmp eq i8 %4, 48
  br i1 %cmp23.i.i, label %land.rhs27.preheader.i.i, label %if.end36.i.i

land.rhs27.preheader.i.i:                         ; preds = %land.lhs.true20.i.i
  %5 = getelementptr i8, ptr %str, i64 %n.2.i.i
  %6 = getelementptr i8, ptr %5, i64 %str.addr.2.idx.i.i
  %scevgep.i.i = getelementptr i8, ptr %6, i64 -2
  br label %land.rhs27.i.i

land.rhs27.i.i:                                   ; preds = %while.body32.i.i, %land.rhs27.preheader.i.i
  %str.addr.4.i.i = phi ptr [ %incdec.ptr34.i.i, %while.body32.i.i ], [ %str.addr.2.i.i, %land.rhs27.preheader.i.i ]
  %n.4.i.i = phi i64 [ %dec33.i.i, %while.body32.i.i ], [ %n.2.i.i, %land.rhs27.preheader.i.i ]
  %arrayidx28.i.i = getelementptr inbounds nuw i8, ptr %str.addr.4.i.i, i64 2
  %7 = load i8, ptr %arrayidx28.i.i, align 1
  %cmp30.i.i = icmp eq i8 %7, 48
  br i1 %cmp30.i.i, label %while.body32.i.i, label %if.end36.i.i

while.body32.i.i:                                 ; preds = %land.rhs27.i.i
  %dec33.i.i = add i64 %n.4.i.i, -1
  %incdec.ptr34.i.i = getelementptr inbounds nuw i8, ptr %str.addr.4.i.i, i64 1
  %cmp26.old.i.i = icmp ugt i64 %dec33.i.i, 2
  br i1 %cmp26.old.i.i, label %land.rhs27.i.i, label %if.end36.i.i

if.end36.i.i:                                     ; preds = %while.body32.i.i, %land.rhs27.i.i, %land.lhs.true20.i.i, %land.lhs.true16.i.i, %land.lhs.true9.i.i
  %str.addr.3.i.i = phi ptr [ %str.addr.2.i.i, %land.lhs.true20.i.i ], [ %str.addr.2.i.i, %land.lhs.true16.i.i ], [ %str.addr.2.i.i, %land.lhs.true9.i.i ], [ %str.addr.4.i.i, %land.rhs27.i.i ], [ %scevgep.i.i, %while.body32.i.i ]
  %n.3.i.i = phi i64 [ %n.2.i.i, %land.lhs.true20.i.i ], [ %n.2.i.i, %land.lhs.true16.i.i ], [ %n.2.i.i, %land.lhs.true9.i.i ], [ %n.4.i.i, %land.rhs27.i.i ], [ 2, %while.body32.i.i ]
  %8 = add i64 %n.3.i.i, %str.addr.2.idx.i.i
  %cmp41.i.i = icmp ugt i64 %8, 32
  br i1 %cmp41.i.i, label %_ZN3re212re2_internalL15TerminateNumberEPcmPKcPmb.exit.i, label %if.end43.i.i

if.end43.i.i:                                     ; preds = %if.end36.i.i
  %9 = getelementptr inbounds i8, ptr %str.addr.3.i.i, i64 %dec12.i.i
  call void @llvm.memmove.p0.p0.i64(ptr nonnull align 16 %buf.i, ptr nonnull align 1 %9, i64 %8, i1 false)
  br i1 %cmp10.i.i, label %if.then45.i.i, label %if.end47.i.i

if.then45.i.i:                                    ; preds = %if.end43.i.i
  store i8 45, ptr %buf.i, align 16
  br label %if.end47.i.i

if.end47.i.i:                                     ; preds = %if.then45.i.i, %if.end43.i.i
  %arrayidx48.i.i = getelementptr inbounds nuw i8, ptr %buf.i, i64 %8
  store i8 0, ptr %arrayidx48.i.i, align 1
  br label %_ZN3re212re2_internalL15TerminateNumberEPcmPKcPmb.exit.i

_ZN3re212re2_internalL15TerminateNumberEPcmPKcPmb.exit.i: ; preds = %if.end47.i.i, %if.end36.i.i, %land.lhs.true.i.i
  %n.addr.0.i = phi i64 [ %n, %if.end36.i.i ], [ %8, %if.end47.i.i ], [ %n, %land.lhs.true.i.i ]
  %retval.0.i.i = phi ptr [ @.str.8, %if.end36.i.i ], [ %buf.i, %if.end47.i.i ], [ @.str.8, %land.lhs.true.i.i ]
  %call1.i = tail call ptr @__errno_location() #36
  store i32 0, ptr %call1.i, align 4
  %call2.i = call i64 @strtol(ptr noundef nonnull %retval.0.i.i, ptr noundef nonnull %end.i, i32 noundef %radix) #30
  %10 = load ptr, ptr %end.i, align 8
  %add.ptr.i = getelementptr inbounds i8, ptr %retval.0.i.i, i64 %n.addr.0.i
  %cmp3.not.i = icmp eq ptr %10, %add.ptr.i
  br i1 %cmp3.not.i, label %if.end5.i, label %_ZN3re212re2_internal5ParseIlEEbPKcmPT_i.exit.thread

if.end5.i:                                        ; preds = %_ZN3re212re2_internalL15TerminateNumberEPcmPKcPmb.exit.i
  %11 = load i32, ptr %call1.i, align 4
  %tobool.not.i = icmp eq i32 %11, 0
  br i1 %tobool.not.i, label %if.end, label %_ZN3re212re2_internal5ParseIlEEbPKcmPT_i.exit.thread

_ZN3re212re2_internal5ParseIlEEbPKcmPT_i.exit.thread: ; preds = %entry, %_ZN3re212re2_internalL15TerminateNumberEPcmPKcPmb.exit.i, %if.end5.i
  call void @llvm.lifetime.end.p0(i64 33, ptr nonnull %buf.i)
  call void @llvm.lifetime.end.p0(i64 8, ptr nonnull %end.i)
  br label %return

if.end:                                           ; preds = %if.end5.i
  call void @llvm.lifetime.end.p0(i64 33, ptr nonnull %buf.i)
  call void @llvm.lifetime.end.p0(i64 8, ptr nonnull %end.i)
  %conv = trunc i64 %call2.i to i16
  %12 = add i64 %call2.i, 32768
  %cmp.not = icmp ult i64 %12, 65536
  br i1 %cmp.not, label %if.end3, label %return

if.end3:                                          ; preds = %if.end
  %cmp4 = icmp eq ptr %dest, null
  br i1 %cmp4, label %return, label %if.end6

if.end6:                                          ; preds = %if.end3
  store i16 %conv, ptr %dest, align 2
  br label %return

return:                                           ; preds = %_ZN3re212re2_internal5ParseIlEEbPKcmPT_i.exit.thread, %if.end3, %if.end, %if.end6
  %retval.0 = phi i1 [ true, %if.end6 ], [ false, %if.end ], [ true, %if.end3 ], [ false, %_ZN3re212re2_internal5ParseIlEEbPKcmPT_i.exit.thread ]
  ret i1 %retval.0
}